
program.debug.elf:     file format elf32-littleriscv


Disassembly of section .text:

00000000 <crt>:

.global crt
.section .text.prologue, "ax"
.align 4
crt:
	nop
   0:	00000013          	addi	zero,zero,0
	la ra, exit
   4:	00000097          	auipc	ra,0x0
   8:	08c08093          	addi	ra,ra,140 # 90 <exit>
	la sp, _sp
   c:	00010117          	auipc	sp,0x10
  10:	ff410113          	addi	sp,sp,-12 # 10000 <_sp>
	mv s0, sp
  14:	00010413          	addi	s0,sp,0
	la gp, __global_pointer$
  18:	00001197          	auipc	gp,0x1
  1c:	f2818193          	addi	gp,gp,-216 # f40 <__global_pointer$>
	li tp, 0
  20:	00000213          	addi	tp,zero,0
	li t0, 0
  24:	00000293          	addi	t0,zero,0
	li t1, 0
  28:	00000313          	addi	t1,zero,0
	li t2, 0
  2c:	00000393          	addi	t2,zero,0
	li s1, 0
  30:	00000493          	addi	s1,zero,0
	li a0, 0
  34:	00000513          	addi	a0,zero,0
	li a1, 0
  38:	00000593          	addi	a1,zero,0
	li a2, 0
  3c:	00000613          	addi	a2,zero,0
	li a3, 0
  40:	00000693          	addi	a3,zero,0
	li a4, 0
  44:	00000713          	addi	a4,zero,0
	li a5, 0
  48:	00000793          	addi	a5,zero,0
	li a6, 0
  4c:	00000813          	addi	a6,zero,0
	li a7, 0
  50:	00000893          	addi	a7,zero,0
	li s2, 0
  54:	00000913          	addi	s2,zero,0
	li s3, 0
  58:	00000993          	addi	s3,zero,0
	li s4, 0
  5c:	00000a13          	addi	s4,zero,0
	li s5, 0
  60:	00000a93          	addi	s5,zero,0
	li s6, 0
  64:	00000b13          	addi	s6,zero,0
	li s7, 0
  68:	00000b93          	addi	s7,zero,0
	li s8, 0
  6c:	00000c13          	addi	s8,zero,0
	li s9, 0
  70:	00000c93          	addi	s9,zero,0
	li s10, 0
  74:	00000d13          	addi	s10,zero,0
	li s11, 0
  78:	00000d93          	addi	s11,zero,0
	li t3, 0
  7c:	00000e13          	addi	t3,zero,0
	li t4, 0
  80:	00000e93          	addi	t4,zero,0
	li t5, 0
  84:	00000f13          	addi	t5,zero,0
	li t6, 0
  88:	00000f93          	addi	t6,zero,0
	j main
  8c:	4440006f          	jal	zero,4d0 <main>

00000090 <exit>:

.global exit
.section .text
.align 4
exit:
	la sp, _sp
  90:	00010117          	auipc	sp,0x10
  94:	f7010113          	addi	sp,sp,-144 # 10000 <_sp>
	sw a0, -8(sp)
  98:	fea12c23          	sw	a0,-8(sp)
	nop
  9c:	00000013          	addi	zero,zero,0
	wfi
  a0:	10500073          	wfi
  a4:	00000013          	addi	zero,zero,0
  a8:	00000013          	addi	zero,zero,0
  ac:	00000013          	addi	zero,zero,0

000000b0 <merge>:

// Merges two subarrays of arr[]. 
// First subarray is arr[l..m] 
// Second subarray is arr[m+1..r] 
void merge(int arr[], int l, int m, int r) 
{ 
  b0:	fa010113          	addi	sp,sp,-96
  b4:	04812e23          	sw	s0,92(sp)
  b8:	05212c23          	sw	s2,88(sp)
  bc:	05312a23          	sw	s3,84(sp)
  c0:	05412823          	sw	s4,80(sp)
  c4:	05512623          	sw	s5,76(sp)
  c8:	05612423          	sw	s6,72(sp)
  cc:	05712223          	sw	s7,68(sp)
  d0:	06010413          	addi	s0,sp,96
  d4:	faa42623          	sw	a0,-84(s0)
  d8:	fab42423          	sw	a1,-88(s0)
  dc:	fac42223          	sw	a2,-92(s0)
  e0:	fad42023          	sw	a3,-96(s0)
  e4:	00010693          	addi	a3,sp,0
  e8:	00068593          	addi	a1,a3,0
	int i, j, k; 
	int n1 = m - l + 1; 
  ec:	fa442603          	lw	a2,-92(s0)
  f0:	fa842683          	lw	a3,-88(s0)
  f4:	40d606b3          	sub	a3,a2,a3
  f8:	00168693          	addi	a3,a3,1
  fc:	fcd42823          	sw	a3,-48(s0)
	int n2 =  r - m; 
 100:	fa042603          	lw	a2,-96(s0)
 104:	fa442683          	lw	a3,-92(s0)
 108:	40d606b3          	sub	a3,a2,a3
 10c:	fcd42623          	sw	a3,-52(s0)
  
	/* create temp arrays */
	int L[n1], R[n2]; 
 110:	fd042683          	lw	a3,-48(s0)
 114:	fff68613          	addi	a2,a3,-1
 118:	fcc42423          	sw	a2,-56(s0)
 11c:	00068613          	addi	a2,a3,0
 120:	00060b13          	addi	s6,a2,0
 124:	00000b93          	addi	s7,zero,0
 128:	01bb5613          	srli	a2,s6,0x1b
 12c:	005b9e93          	slli	t4,s7,0x5
 130:	01d66eb3          	or	t4,a2,t4
 134:	005b1e13          	slli	t3,s6,0x5
 138:	00068613          	addi	a2,a3,0
 13c:	00060a13          	addi	s4,a2,0
 140:	00000a93          	addi	s5,zero,0
 144:	01ba5613          	srli	a2,s4,0x1b
 148:	005a9393          	slli	t2,s5,0x5
 14c:	007663b3          	or	t2,a2,t2
 150:	005a1313          	slli	t1,s4,0x5
 154:	00269693          	slli	a3,a3,0x2
 158:	00f68693          	addi	a3,a3,15
 15c:	0046d693          	srli	a3,a3,0x4
 160:	00469693          	slli	a3,a3,0x4
 164:	40d10133          	sub	sp,sp,a3
 168:	00010693          	addi	a3,sp,0
 16c:	00368693          	addi	a3,a3,3
 170:	0026d693          	srli	a3,a3,0x2
 174:	00269693          	slli	a3,a3,0x2
 178:	fcd42223          	sw	a3,-60(s0)
 17c:	fcc42683          	lw	a3,-52(s0)
 180:	fff68613          	addi	a2,a3,-1
 184:	fcc42023          	sw	a2,-64(s0)
 188:	00068613          	addi	a2,a3,0
 18c:	00060913          	addi	s2,a2,0
 190:	00000993          	addi	s3,zero,0
 194:	01b95613          	srli	a2,s2,0x1b
 198:	00599893          	slli	a7,s3,0x5
 19c:	011668b3          	or	a7,a2,a7
 1a0:	00591813          	slli	a6,s2,0x5
 1a4:	00068613          	addi	a2,a3,0
 1a8:	00060f13          	addi	t5,a2,0
 1ac:	00000f93          	addi	t6,zero,0
 1b0:	01bf5613          	srli	a2,t5,0x1b
 1b4:	005f9793          	slli	a5,t6,0x5
 1b8:	00f667b3          	or	a5,a2,a5
 1bc:	005f1713          	slli	a4,t5,0x5
 1c0:	00068793          	addi	a5,a3,0
 1c4:	00279793          	slli	a5,a5,0x2
 1c8:	00f78793          	addi	a5,a5,15
 1cc:	0047d793          	srli	a5,a5,0x4
 1d0:	00479793          	slli	a5,a5,0x4
 1d4:	40f10133          	sub	sp,sp,a5
 1d8:	00010793          	addi	a5,sp,0
 1dc:	00378793          	addi	a5,a5,3
 1e0:	0027d793          	srli	a5,a5,0x2
 1e4:	00279793          	slli	a5,a5,0x2
 1e8:	faf42e23          	sw	a5,-68(s0)
  
	/* Copy data to temp arrays L[] and R[] */
	for (i = 0; i < n1; i++) 
 1ec:	fc042e23          	sw	zero,-36(s0)
 1f0:	0400006f          	jal	zero,230 <merge+0x180>
		L[i] = arr[l + i]; 
 1f4:	fa842703          	lw	a4,-88(s0)
 1f8:	fdc42783          	lw	a5,-36(s0)
 1fc:	00f707b3          	add	a5,a4,a5
 200:	00279793          	slli	a5,a5,0x2
 204:	fac42703          	lw	a4,-84(s0)
 208:	00f707b3          	add	a5,a4,a5
 20c:	0007a703          	lw	a4,0(a5)
 210:	fc442683          	lw	a3,-60(s0)
 214:	fdc42783          	lw	a5,-36(s0)
 218:	00279793          	slli	a5,a5,0x2
 21c:	00f687b3          	add	a5,a3,a5
 220:	00e7a023          	sw	a4,0(a5)
	for (i = 0; i < n1; i++) 
 224:	fdc42783          	lw	a5,-36(s0)
 228:	00178793          	addi	a5,a5,1
 22c:	fcf42e23          	sw	a5,-36(s0)
 230:	fdc42703          	lw	a4,-36(s0)
 234:	fd042783          	lw	a5,-48(s0)
 238:	faf74ee3          	blt	a4,a5,1f4 <merge+0x144>
	for (j = 0; j < n2; j++) 
 23c:	fc042c23          	sw	zero,-40(s0)
 240:	0440006f          	jal	zero,284 <merge+0x1d4>
		R[j] = arr[m + 1+ j]; 
 244:	fa442783          	lw	a5,-92(s0)
 248:	00178713          	addi	a4,a5,1
 24c:	fd842783          	lw	a5,-40(s0)
 250:	00f707b3          	add	a5,a4,a5
 254:	00279793          	slli	a5,a5,0x2
 258:	fac42703          	lw	a4,-84(s0)
 25c:	00f707b3          	add	a5,a4,a5
 260:	0007a703          	lw	a4,0(a5)
 264:	fbc42683          	lw	a3,-68(s0)
 268:	fd842783          	lw	a5,-40(s0)
 26c:	00279793          	slli	a5,a5,0x2
 270:	00f687b3          	add	a5,a3,a5
 274:	00e7a023          	sw	a4,0(a5)
	for (j = 0; j < n2; j++) 
 278:	fd842783          	lw	a5,-40(s0)
 27c:	00178793          	addi	a5,a5,1
 280:	fcf42c23          	sw	a5,-40(s0)
 284:	fd842703          	lw	a4,-40(s0)
 288:	fcc42783          	lw	a5,-52(s0)
 28c:	faf74ce3          	blt	a4,a5,244 <merge+0x194>
  
	/* Merge the temp arrays back into arr[l..r]*/
	i = 0; // Initial index of first subarray 
 290:	fc042e23          	sw	zero,-36(s0)
	j = 0; // Initial index of second subarray 
 294:	fc042c23          	sw	zero,-40(s0)
	k = l; // Initial index of merged subarray 
 298:	fa842783          	lw	a5,-88(s0)
 29c:	fcf42a23          	sw	a5,-44(s0)
	while (i < n1 && j < n2) 
 2a0:	0a80006f          	jal	zero,348 <merge+0x298>
	{ 
		if (L[i] <= R[j]) 
 2a4:	fc442703          	lw	a4,-60(s0)
 2a8:	fdc42783          	lw	a5,-36(s0)
 2ac:	00279793          	slli	a5,a5,0x2
 2b0:	00f707b3          	add	a5,a4,a5
 2b4:	0007a703          	lw	a4,0(a5)
 2b8:	fbc42683          	lw	a3,-68(s0)
 2bc:	fd842783          	lw	a5,-40(s0)
 2c0:	00279793          	slli	a5,a5,0x2
 2c4:	00f687b3          	add	a5,a3,a5
 2c8:	0007a783          	lw	a5,0(a5)
 2cc:	02e7ce63          	blt	a5,a4,308 <merge+0x258>
		{ 
			arr[k] = L[i]; 
 2d0:	fd442783          	lw	a5,-44(s0)
 2d4:	00279793          	slli	a5,a5,0x2
 2d8:	fac42703          	lw	a4,-84(s0)
 2dc:	00f707b3          	add	a5,a4,a5
 2e0:	fc442683          	lw	a3,-60(s0)
 2e4:	fdc42703          	lw	a4,-36(s0)
 2e8:	00271713          	slli	a4,a4,0x2
 2ec:	00e68733          	add	a4,a3,a4
 2f0:	00072703          	lw	a4,0(a4)
 2f4:	00e7a023          	sw	a4,0(a5)
			i++; 
 2f8:	fdc42783          	lw	a5,-36(s0)
 2fc:	00178793          	addi	a5,a5,1
 300:	fcf42e23          	sw	a5,-36(s0)
 304:	0380006f          	jal	zero,33c <merge+0x28c>
		} 
		else
		{ 
			arr[k] = R[j]; 
 308:	fd442783          	lw	a5,-44(s0)
 30c:	00279793          	slli	a5,a5,0x2
 310:	fac42703          	lw	a4,-84(s0)
 314:	00f707b3          	add	a5,a4,a5
 318:	fbc42683          	lw	a3,-68(s0)
 31c:	fd842703          	lw	a4,-40(s0)
 320:	00271713          	slli	a4,a4,0x2
 324:	00e68733          	add	a4,a3,a4
 328:	00072703          	lw	a4,0(a4)
 32c:	00e7a023          	sw	a4,0(a5)
			j++; 
 330:	fd842783          	lw	a5,-40(s0)
 334:	00178793          	addi	a5,a5,1
 338:	fcf42c23          	sw	a5,-40(s0)
		} 
		k++; 
 33c:	fd442783          	lw	a5,-44(s0)
 340:	00178793          	addi	a5,a5,1
 344:	fcf42a23          	sw	a5,-44(s0)
	while (i < n1 && j < n2) 
 348:	fdc42703          	lw	a4,-36(s0)
 34c:	fd042783          	lw	a5,-48(s0)
 350:	04f75a63          	bge	a4,a5,3a4 <merge+0x2f4>
 354:	fd842703          	lw	a4,-40(s0)
 358:	fcc42783          	lw	a5,-52(s0)
 35c:	f4f744e3          	blt	a4,a5,2a4 <merge+0x1f4>
	} 
  
	/* Copy the remaining elements of L[], if there 
	   are any */
	while (i < n1) 
 360:	0440006f          	jal	zero,3a4 <merge+0x2f4>
	{ 
		arr[k] = L[i]; 
 364:	fd442783          	lw	a5,-44(s0)
 368:	00279793          	slli	a5,a5,0x2
 36c:	fac42703          	lw	a4,-84(s0)
 370:	00f707b3          	add	a5,a4,a5
 374:	fc442683          	lw	a3,-60(s0)
 378:	fdc42703          	lw	a4,-36(s0)
 37c:	00271713          	slli	a4,a4,0x2
 380:	00e68733          	add	a4,a3,a4
 384:	00072703          	lw	a4,0(a4)
 388:	00e7a023          	sw	a4,0(a5)
		i++; 
 38c:	fdc42783          	lw	a5,-36(s0)
 390:	00178793          	addi	a5,a5,1
 394:	fcf42e23          	sw	a5,-36(s0)
		k++; 
 398:	fd442783          	lw	a5,-44(s0)
 39c:	00178793          	addi	a5,a5,1
 3a0:	fcf42a23          	sw	a5,-44(s0)
	while (i < n1) 
 3a4:	fdc42703          	lw	a4,-36(s0)
 3a8:	fd042783          	lw	a5,-48(s0)
 3ac:	faf74ce3          	blt	a4,a5,364 <merge+0x2b4>
	} 
  
	/* Copy the remaining elements of R[], if there 
	   are any */
	while (j < n2) 
 3b0:	0440006f          	jal	zero,3f4 <merge+0x344>
	{ 
		arr[k] = R[j]; 
 3b4:	fd442783          	lw	a5,-44(s0)
 3b8:	00279793          	slli	a5,a5,0x2
 3bc:	fac42703          	lw	a4,-84(s0)
 3c0:	00f707b3          	add	a5,a4,a5
 3c4:	fbc42683          	lw	a3,-68(s0)
 3c8:	fd842703          	lw	a4,-40(s0)
 3cc:	00271713          	slli	a4,a4,0x2
 3d0:	00e68733          	add	a4,a3,a4
 3d4:	00072703          	lw	a4,0(a4)
 3d8:	00e7a023          	sw	a4,0(a5)
		j++; 
 3dc:	fd842783          	lw	a5,-40(s0)
 3e0:	00178793          	addi	a5,a5,1
 3e4:	fcf42c23          	sw	a5,-40(s0)
		k++; 
 3e8:	fd442783          	lw	a5,-44(s0)
 3ec:	00178793          	addi	a5,a5,1
 3f0:	fcf42a23          	sw	a5,-44(s0)
	while (j < n2) 
 3f4:	fd842703          	lw	a4,-40(s0)
 3f8:	fcc42783          	lw	a5,-52(s0)
 3fc:	faf74ce3          	blt	a4,a5,3b4 <merge+0x304>
 400:	00058113          	addi	sp,a1,0
	} 
} 
 404:	00000013          	addi	zero,zero,0
 408:	fa040113          	addi	sp,s0,-96
 40c:	05c12403          	lw	s0,92(sp)
 410:	05812903          	lw	s2,88(sp)
 414:	05412983          	lw	s3,84(sp)
 418:	05012a03          	lw	s4,80(sp)
 41c:	04c12a83          	lw	s5,76(sp)
 420:	04812b03          	lw	s6,72(sp)
 424:	04412b83          	lw	s7,68(sp)
 428:	06010113          	addi	sp,sp,96
 42c:	00008067          	jalr	zero,0(ra)

00000430 <mergeSort>:
  
/* l is for left index and r is right index of the 
   sub-array of arr to be sorted */
void mergeSort(int arr[], int l, int r) 
{ 
 430:	fd010113          	addi	sp,sp,-48
 434:	02112623          	sw	ra,44(sp)
 438:	02812423          	sw	s0,40(sp)
 43c:	03010413          	addi	s0,sp,48
 440:	fca42e23          	sw	a0,-36(s0)
 444:	fcb42c23          	sw	a1,-40(s0)
 448:	fcc42a23          	sw	a2,-44(s0)
	if (l < r) 
 44c:	fd842703          	lw	a4,-40(s0)
 450:	fd442783          	lw	a5,-44(s0)
 454:	06f75463          	bge	a4,a5,4bc <mergeSort+0x8c>
	{ 
		// Same as (l+r)/2, but avoids overflow for 
		// large l and h 
		int m = l+((r-l) >> 1); 
 458:	fd442703          	lw	a4,-44(s0)
 45c:	fd842783          	lw	a5,-40(s0)
 460:	40f707b3          	sub	a5,a4,a5
 464:	4017d793          	srai	a5,a5,0x1
 468:	fd842703          	lw	a4,-40(s0)
 46c:	00f707b3          	add	a5,a4,a5
 470:	fef42623          	sw	a5,-20(s0)
  
		// Sort first and second halves 
		mergeSort(arr, l, m); 
 474:	fec42603          	lw	a2,-20(s0)
 478:	fd842583          	lw	a1,-40(s0)
 47c:	fdc42503          	lw	a0,-36(s0)
 480:	00000097          	auipc	ra,0x0
 484:	fb0080e7          	jalr	ra,-80(ra) # 430 <mergeSort>
		mergeSort(arr, m+1, r); 
 488:	fec42783          	lw	a5,-20(s0)
 48c:	00178793          	addi	a5,a5,1
 490:	fd442603          	lw	a2,-44(s0)
 494:	00078593          	addi	a1,a5,0
 498:	fdc42503          	lw	a0,-36(s0)
 49c:	00000097          	auipc	ra,0x0
 4a0:	f94080e7          	jalr	ra,-108(ra) # 430 <mergeSort>
  
		merge(arr, l, m, r); 
 4a4:	fd442683          	lw	a3,-44(s0)
 4a8:	fec42603          	lw	a2,-20(s0)
 4ac:	fd842583          	lw	a1,-40(s0)
 4b0:	fdc42503          	lw	a0,-36(s0)
 4b4:	00000097          	auipc	ra,0x0
 4b8:	bfc080e7          	jalr	ra,-1028(ra) # b0 <merge>
	} 
}
 4bc:	00000013          	addi	zero,zero,0
 4c0:	02c12083          	lw	ra,44(sp)
 4c4:	02812403          	lw	s0,40(sp)
 4c8:	03010113          	addi	sp,sp,48
 4cc:	00008067          	jalr	zero,0(ra)

000004d0 <main>:
int main() {
 4d0:	f9010113          	addi	sp,sp,-112
 4d4:	06112623          	sw	ra,108(sp)
 4d8:	06812423          	sw	s0,104(sp)
 4dc:	07010413          	addi	s0,sp,112
	int data[] = {32,15,321,5,4,3,2,74,9,4,846,1315,84,6548,47,6113,1,17,485,1348,4,1341,768};
 4e0:	000007b7          	lui	a5,0x0
 4e4:	72078713          	addi	a4,a5,1824 # 720 <memcpy+0x1e8>
 4e8:	f9440793          	addi	a5,s0,-108
 4ec:	00070693          	addi	a3,a4,0
 4f0:	05c00713          	addi	a4,zero,92
 4f4:	00070613          	addi	a2,a4,0
 4f8:	00068593          	addi	a1,a3,0
 4fc:	00078513          	addi	a0,a5,0
 500:	00000097          	auipc	ra,0x0
 504:	038080e7          	jalr	ra,56(ra) # 538 <memcpy>
	mergeSort(data, 0, 23);
 508:	f9440793          	addi	a5,s0,-108
 50c:	01700613          	addi	a2,zero,23
 510:	00000593          	addi	a1,zero,0
 514:	00078513          	addi	a0,a5,0
 518:	00000097          	auipc	ra,0x0
 51c:	f18080e7          	jalr	ra,-232(ra) # 430 <mergeSort>

	return 0;
 520:	00000793          	addi	a5,zero,0
}
 524:	00078513          	addi	a0,a5,0
 528:	06c12083          	lw	ra,108(sp)
 52c:	06812403          	lw	s0,104(sp)
 530:	07010113          	addi	sp,sp,112
 534:	00008067          	jalr	zero,0(ra)

00000538 <memcpy>:
 538:	00b547b3          	xor	a5,a0,a1
 53c:	0037f793          	andi	a5,a5,3
 540:	00c508b3          	add	a7,a0,a2
 544:	06079463          	bne	a5,zero,5ac <memcpy+0x74>
 548:	00300793          	addi	a5,zero,3
 54c:	06c7f063          	bgeu	a5,a2,5ac <memcpy+0x74>
 550:	00357793          	andi	a5,a0,3
 554:	00050713          	addi	a4,a0,0
 558:	06079a63          	bne	a5,zero,5cc <memcpy+0x94>
 55c:	ffc8f613          	andi	a2,a7,-4
 560:	40e606b3          	sub	a3,a2,a4
 564:	02000793          	addi	a5,zero,32
 568:	08d7ce63          	blt	a5,a3,604 <memcpy+0xcc>
 56c:	00058693          	addi	a3,a1,0
 570:	00070793          	addi	a5,a4,0
 574:	02c77863          	bgeu	a4,a2,5a4 <memcpy+0x6c>
 578:	0006a803          	lw	a6,0(a3)
 57c:	00478793          	addi	a5,a5,4
 580:	00468693          	addi	a3,a3,4
 584:	ff07ae23          	sw	a6,-4(a5)
 588:	fec7e8e3          	bltu	a5,a2,578 <memcpy+0x40>
 58c:	fff60793          	addi	a5,a2,-1
 590:	40e787b3          	sub	a5,a5,a4
 594:	ffc7f793          	andi	a5,a5,-4
 598:	00478793          	addi	a5,a5,4
 59c:	00f70733          	add	a4,a4,a5
 5a0:	00f585b3          	add	a1,a1,a5
 5a4:	01176863          	bltu	a4,a7,5b4 <memcpy+0x7c>
 5a8:	00008067          	jalr	zero,0(ra)
 5ac:	00050713          	addi	a4,a0,0
 5b0:	05157863          	bgeu	a0,a7,600 <memcpy+0xc8>
 5b4:	0005c783          	lbu	a5,0(a1)
 5b8:	00170713          	addi	a4,a4,1
 5bc:	00158593          	addi	a1,a1,1
 5c0:	fef70fa3          	sb	a5,-1(a4)
 5c4:	fee898e3          	bne	a7,a4,5b4 <memcpy+0x7c>
 5c8:	00008067          	jalr	zero,0(ra)
 5cc:	0005c683          	lbu	a3,0(a1)
 5d0:	00170713          	addi	a4,a4,1
 5d4:	00377793          	andi	a5,a4,3
 5d8:	fed70fa3          	sb	a3,-1(a4)
 5dc:	00158593          	addi	a1,a1,1
 5e0:	f6078ee3          	beq	a5,zero,55c <memcpy+0x24>
 5e4:	0005c683          	lbu	a3,0(a1)
 5e8:	00170713          	addi	a4,a4,1
 5ec:	00377793          	andi	a5,a4,3
 5f0:	fed70fa3          	sb	a3,-1(a4)
 5f4:	00158593          	addi	a1,a1,1
 5f8:	fc079ae3          	bne	a5,zero,5cc <memcpy+0x94>
 5fc:	f61ff06f          	jal	zero,55c <memcpy+0x24>
 600:	00008067          	jalr	zero,0(ra)
 604:	ff010113          	addi	sp,sp,-16
 608:	00812623          	sw	s0,12(sp)
 60c:	02000413          	addi	s0,zero,32
 610:	0005a383          	lw	t2,0(a1)
 614:	0045a283          	lw	t0,4(a1)
 618:	0085af83          	lw	t6,8(a1)
 61c:	00c5af03          	lw	t5,12(a1)
 620:	0105ae83          	lw	t4,16(a1)
 624:	0145ae03          	lw	t3,20(a1)
 628:	0185a303          	lw	t1,24(a1)
 62c:	01c5a803          	lw	a6,28(a1)
 630:	0205a683          	lw	a3,32(a1)
 634:	02470713          	addi	a4,a4,36
 638:	40e607b3          	sub	a5,a2,a4
 63c:	fc772e23          	sw	t2,-36(a4)
 640:	fe572023          	sw	t0,-32(a4)
 644:	fff72223          	sw	t6,-28(a4)
 648:	ffe72423          	sw	t5,-24(a4)
 64c:	ffd72623          	sw	t4,-20(a4)
 650:	ffc72823          	sw	t3,-16(a4)
 654:	fe672a23          	sw	t1,-12(a4)
 658:	ff072c23          	sw	a6,-8(a4)
 65c:	fed72e23          	sw	a3,-4(a4)
 660:	02458593          	addi	a1,a1,36
 664:	faf446e3          	blt	s0,a5,610 <memcpy+0xd8>
 668:	00058693          	addi	a3,a1,0
 66c:	00070793          	addi	a5,a4,0
 670:	02c77863          	bgeu	a4,a2,6a0 <memcpy+0x168>
 674:	0006a803          	lw	a6,0(a3)
 678:	00478793          	addi	a5,a5,4
 67c:	00468693          	addi	a3,a3,4
 680:	ff07ae23          	sw	a6,-4(a5)
 684:	fec7e8e3          	bltu	a5,a2,674 <memcpy+0x13c>
 688:	fff60793          	addi	a5,a2,-1
 68c:	40e787b3          	sub	a5,a5,a4
 690:	ffc7f793          	andi	a5,a5,-4
 694:	00478793          	addi	a5,a5,4
 698:	00f70733          	add	a4,a4,a5
 69c:	00f585b3          	add	a1,a1,a5
 6a0:	01176863          	bltu	a4,a7,6b0 <memcpy+0x178>
 6a4:	00c12403          	lw	s0,12(sp)
 6a8:	01010113          	addi	sp,sp,16
 6ac:	00008067          	jalr	zero,0(ra)
 6b0:	0005c783          	lbu	a5,0(a1)
 6b4:	00170713          	addi	a4,a4,1
 6b8:	00158593          	addi	a1,a1,1
 6bc:	fef70fa3          	sb	a5,-1(a4)
 6c0:	fee882e3          	beq	a7,a4,6a4 <memcpy+0x16c>
 6c4:	0005c783          	lbu	a5,0(a1)
 6c8:	00170713          	addi	a4,a4,1
 6cc:	00158593          	addi	a1,a1,1
 6d0:	fef70fa3          	sb	a5,-1(a4)
 6d4:	fce89ee3          	bne	a7,a4,6b0 <memcpy+0x178>
 6d8:	fcdff06f          	jal	zero,6a4 <memcpy+0x16c>
	...
